target datalayout = "e-m:e-p270:32:32-p271:32:32-p272:64:64-i64:64-i128:128-f80:128-n8:16:32:64-S128"
target triple = "x86_64-unknown-linux-gnu"

%struct.Property = type { ptr, ptr, i64, i8, i64, i8, %union.anon, i32, ptr, i32, ptr }
%union.anon = type { i64 }

; Function Attrs: nounwind sspstrong uwtable
define internal ptr @create_link_property(ptr noundef %oc, ptr noundef %name, ptr noundef %prop) #0 {
entry:
  %oc.addr = alloca ptr, align 8
  %name.addr = alloca ptr, align 8
  %prop.addr = alloca ptr, align 8
  store ptr %oc, ptr %oc.addr, align 8
  store ptr %name, ptr %name.addr, align 8
  store ptr %prop, ptr %prop.addr, align 8
  %0 = load ptr, ptr %oc.addr, align 8
  %1 = load ptr, ptr %name.addr, align 8
  %2 = load ptr, ptr %prop.addr, align 8
  %link_type = getelementptr inbounds %struct.Property, ptr %2, i32 0, i32 10
  %3 = load ptr, ptr %link_type, align 8
  %4 = load ptr, ptr %prop.addr, align 8
  %offset = getelementptr inbounds %struct.Property, ptr %4, i32 0, i32 2
  %5 = load i64, ptr %offset, align 8
  %call = call ptr @object_class_property_add_link(ptr noundef %0, ptr noundef %1, ptr noundef %3, i64 noundef %5, ptr noundef @qdev_prop_allow_set_link_before_realize, i32 noundef 1)
  ret ptr %call
}