; Function Attrs: nounwind sspstrong uwtable
define internal ptr @create_link_property(ptr noundef %oc, ptr noundef %name, ptr noundef readonly captures(none) %prop) #0 {
entry:
  %link_type = getelementptr inbounds nuw i8, ptr %prop, i64 80
  %0 = load ptr, ptr %link_type, align 8
  %offset = getelementptr inbounds nuw i8, ptr %prop, i64 16
  %1 = load i64, ptr %offset, align 8
  %call = tail call ptr @object_class_property_add_link(ptr noundef %oc, ptr noundef %name, ptr noundef %0, i64 noundef %1, ptr noundef nonnull @qdev_prop_allow_set_link_before_realize, i32 noundef 1) #9
  ret ptr %call
}